target datalayout = "e-m:e-p270:32:32-p271:32:32-p272:64:64-i64:64-i128:128-f80:128-n8:16:32:64-S128"
target triple = "x86_64-pc-linux-gnu"

%"class.clang::Qualifiers" = type { i64 }
%"class.clang::QualifiersAndAtomic" = type <{ %"class.clang::Qualifiers", i8, [7 x i8] }>
%"class.llvm::function_ref.1811" = type { ptr, i64 }

; Function Attrs: mustprogress nounwind uwtable
define linkonce_odr hidden void @_ZN5clang10Qualifiers11addVolatileEv(ptr noundef nonnull align 8 dereferenceable(8) %0) #0 comdat align 2 {
  %2 = alloca ptr, align 8
  store ptr %0, ptr %2, align 8
  %3 = load ptr, ptr %2, align 8
  %4 = getelementptr inbounds nuw %"class.clang::Qualifiers", ptr %3, i32 0, i32 0
  %5 = load i64, ptr %4, align 8
  %6 = or i64 %5, 4
  store i64 %6, ptr %4, align 8
  ret void
}

; Function Attrs: mustprogress nounwind uwtable
define linkonce_odr hidden i64 @_ZNK5clang10Qualifiers12withVolatileEv(ptr noundef nonnull align 8 dereferenceable(8) %0) #0 comdat align 2 {
  %2 = alloca %"class.clang::Qualifiers", align 8
  %3 = alloca ptr, align 8
  store ptr %0, ptr %3, align 8
  %4 = load ptr, ptr %3, align 8
  call void @llvm.memcpy.p0.p0.i64(ptr align 8 %2, ptr align 8 %4, i64 8, i1 false)
  call void @_ZN5clang10Qualifiers11addVolatileEv(ptr noundef nonnull align 8 dereferenceable(8) %2)
  %5 = getelementptr inbounds nuw %"class.clang::Qualifiers", ptr %2, i32 0, i32 0
  %6 = load i64, ptr %5, align 8
  ret i64 %6
}

; Function Attrs: mustprogress nounwind uwtable
define linkonce_odr hidden void @_ZN5clang10Qualifiers14removeVolatileEv(ptr noundef nonnull align 8 dereferenceable(8) %0) #0 comdat align 2 {
  %2 = alloca ptr, align 8
  store ptr %0, ptr %2, align 8
  %3 = load ptr, ptr %2, align 8
  %4 = getelementptr inbounds nuw %"class.clang::Qualifiers", ptr %3, i32 0, i32 0
  %5 = load i64, ptr %4, align 8
  %6 = and i64 %5, -5
  store i64 %6, ptr %4, align 8
  ret void
}

; Function Attrs: mustprogress nounwind uwtable
define linkonce_odr hidden noundef zeroext i1 @_ZNK5clang10Qualifiers11hasVolatileEv(ptr noundef nonnull align 8 dereferenceable(8) %0) #0 comdat align 2 {
  %2 = alloca ptr, align 8
  store ptr %0, ptr %2, align 8
  %3 = load ptr, ptr %2, align 8
  %4 = getelementptr inbounds nuw %"class.clang::Qualifiers", ptr %3, i32 0, i32 0
  %5 = load i64, ptr %4, align 8
  %6 = and i64 %5, 4
  %7 = icmp ne i64 %6, 0
  ret i1 %7
}

; Function Attrs: mustprogress nounwind uwtable
define linkonce_odr hidden void @_ZN5clang19QualifiersAndAtomicC2ENS_10QualifiersEb(ptr noundef nonnull align 8 dereferenceable(9) %0, i64 %1, i1 noundef zeroext %2) unnamed_addr #0 comdat align 2 {
  %4 = alloca %"class.clang::Qualifiers", align 8
  %5 = alloca ptr, align 8
  %6 = alloca i8, align 1
  %7 = getelementptr inbounds nuw %"class.clang::Qualifiers", ptr %4, i32 0, i32 0
  store i64 %1, ptr %7, align 8
  store ptr %0, ptr %5, align 8
  %8 = zext i1 %2 to i8
  store i8 %8, ptr %6, align 1
  %9 = load ptr, ptr %5, align 8
  %10 = getelementptr inbounds nuw %"class.clang::QualifiersAndAtomic", ptr %9, i32 0, i32 0
  call void @llvm.memcpy.p0.p0.i64(ptr align 8 %10, ptr align 8 %4, i64 8, i1 false)
  %11 = getelementptr inbounds nuw %"class.clang::QualifiersAndAtomic", ptr %9, i32 0, i32 1
  %12 = load i8, ptr %6, align 1
  %13 = trunc i8 %12 to i1
  %14 = zext i1 %13 to i8
  store i8 %14, ptr %11, align 8
  ret void
}

; Function Attrs: mustprogress nounwind uwtable
define linkonce_odr hidden void @_ZNK4llvm12function_refIFvN5clang19QualifiersAndAtomicEEEclES2_(ptr noundef nonnull align 8 dereferenceable(16) %0, i64 %1, i8 %2) #0 comdat align 2 {
  %4 = alloca %"class.clang::QualifiersAndAtomic", align 8
  %5 = alloca ptr, align 8
  %6 = alloca %"class.clang::QualifiersAndAtomic", align 8
  %7 = getelementptr inbounds nuw { i64, i8 }, ptr %4, i32 0, i32 0
  store i64 %1, ptr %7, align 8
  %8 = getelementptr inbounds nuw { i64, i8 }, ptr %4, i32 0, i32 1
  store i8 %2, ptr %8, align 8
  store ptr %0, ptr %5, align 8
  %9 = load ptr, ptr %5, align 8
  %10 = getelementptr inbounds nuw %"class.llvm::function_ref.1811", ptr %9, i32 0, i32 0
  %11 = load ptr, ptr %10, align 8
  %12 = getelementptr inbounds nuw %"class.llvm::function_ref.1811", ptr %9, i32 0, i32 1
  %13 = load i64, ptr %12, align 8
  call void @llvm.memcpy.p0.p0.i64(ptr align 8 %6, ptr align 8 %4, i64 16, i1 false)
  %14 = getelementptr inbounds nuw { i64, i8 }, ptr %6, i32 0, i32 0
  %15 = load i64, ptr %14, align 8
  %16 = getelementptr inbounds nuw { i64, i8 }, ptr %6, i32 0, i32 1
  %17 = load i8, ptr %16, align 8
  call void %11(i64 noundef %13, i64 %15, i8 %17)
  ret void
}

; Function Attrs: mustprogress nounwind uwtable
define linkonce_odr hidden { i64, i8 } @_ZN5clang19QualifiersAndAtomic12withVolatileEv(ptr noundef nonnull align 8 dereferenceable(9) %0) #0 comdat align 2 {
  %2 = alloca %"class.clang::QualifiersAndAtomic", align 8
  %3 = alloca ptr, align 8
  %4 = alloca %"class.clang::Qualifiers", align 8
  store ptr %0, ptr %3, align 8
  %5 = load ptr, ptr %3, align 8
  %6 = getelementptr inbounds nuw %"class.clang::QualifiersAndAtomic", ptr %5, i32 0, i32 0
  %7 = call i64 @_ZNK5clang10Qualifiers12withVolatileEv(ptr noundef nonnull align 8 dereferenceable(8) %6)
  %8 = getelementptr inbounds nuw %"class.clang::Qualifiers", ptr %4, i32 0, i32 0
  store i64 %7, ptr %8, align 8
  %9 = getelementptr inbounds nuw %"class.clang::QualifiersAndAtomic", ptr %5, i32 0, i32 1
  %10 = load i8, ptr %9, align 8
  %11 = trunc i8 %10 to i1
  %12 = getelementptr inbounds nuw %"class.clang::Qualifiers", ptr %4, i32 0, i32 0
  %13 = load i64, ptr %12, align 8
  call void @_ZN5clang19QualifiersAndAtomicC2ENS_10QualifiersEb(ptr noundef nonnull align 8 dereferenceable(9) %2, i64 %13, i1 noundef zeroext %11)
  %14 = load { i64, i8 }, ptr %2, align 8
  ret { i64, i8 } %14
}

; Function Attrs: mustprogress nounwind uwtable
define linkonce_odr hidden void @_ZN5clang19QualifiersAndAtomic14removeVolatileEv(ptr noundef nonnull align 8 dereferenceable(9) %0) #0 comdat align 2 {
  %2 = alloca ptr, align 8
  store ptr %0, ptr %2, align 8
  %3 = load ptr, ptr %2, align 8
  %4 = getelementptr inbounds nuw %"class.clang::QualifiersAndAtomic", ptr %3, i32 0, i32 0
  call void @_ZN5clang10Qualifiers14removeVolatileEv(ptr noundef nonnull align 8 dereferenceable(8) %4)
  ret void
}

; Function Attrs: mustprogress nounwind uwtable
define linkonce_odr hidden noundef zeroext i1 @_ZNK5clang19QualifiersAndAtomic11hasVolatileEv(ptr noundef nonnull align 8 dereferenceable(9) %0) #0 comdat align 2 {
  %2 = alloca ptr, align 8
  store ptr %0, ptr %2, align 8
  %3 = load ptr, ptr %2, align 8
  %4 = getelementptr inbounds nuw %"class.clang::QualifiersAndAtomic", ptr %3, i32 0, i32 0
  %5 = call noundef zeroext i1 @_ZNK5clang10Qualifiers11hasVolatileEv(ptr noundef nonnull align 8 dereferenceable(8) %4)
  ret i1 %5
}

; Function Attrs: mustprogress nounwind uwtable
define linkonce_odr hidden { i64, i8 } @_ZN5clang19QualifiersAndAtomic10withAtomicEv(ptr noundef nonnull align 8 dereferenceable(9) %0) #0 comdat align 2 {
  %2 = alloca %"class.clang::QualifiersAndAtomic", align 8
  %3 = alloca ptr, align 8
  %4 = alloca %"class.clang::Qualifiers", align 8
  store ptr %0, ptr %3, align 8
  %5 = load ptr, ptr %3, align 8
  %6 = getelementptr inbounds nuw %"class.clang::QualifiersAndAtomic", ptr %5, i32 0, i32 0
  call void @llvm.memcpy.p0.p0.i64(ptr align 8 %4, ptr align 8 %6, i64 8, i1 false)
  %7 = getelementptr inbounds nuw %"class.clang::Qualifiers", ptr %4, i32 0, i32 0
  %8 = load i64, ptr %7, align 8
  call void @_ZN5clang19QualifiersAndAtomicC2ENS_10QualifiersEb(ptr noundef nonnull align 8 dereferenceable(9) %2, i64 %8, i1 noundef zeroext true)
  %9 = load { i64, i8 }, ptr %2, align 8
  ret { i64, i8 } %9
}

; Function Attrs: mustprogress nounwind uwtable
define linkonce_odr hidden void @_ZN5clang19QualifiersAndAtomic12removeAtomicEv(ptr noundef nonnull align 8 dereferenceable(9) %0) #0 comdat align 2 {
  %2 = alloca ptr, align 8
  store ptr %0, ptr %2, align 8
  %3 = load ptr, ptr %2, align 8
  %4 = getelementptr inbounds nuw %"class.clang::QualifiersAndAtomic", ptr %3, i32 0, i32 1
  store i8 0, ptr %4, align 8
  ret void
}

; Function Attrs: mustprogress nounwind uwtable
define linkonce_odr hidden noundef zeroext i1 @_ZNK5clang19QualifiersAndAtomic9hasAtomicEv(ptr noundef nonnull align 8 dereferenceable(9) %0) #0 comdat align 2 {
  %2 = alloca ptr, align 8
  store ptr %0, ptr %2, align 8
  %3 = load ptr, ptr %2, align 8
  %4 = getelementptr inbounds nuw %"class.clang::QualifiersAndAtomic", ptr %3, i32 0, i32 1
  %5 = load i8, ptr %4, align 8
  %6 = trunc i8 %5 to i1
  ret i1 %6
}

; Function Attrs: mustprogress nounwind uwtable
define internal void @_ZL31forAllQualifierCombinationsImplN5clang19QualifiersAndAtomicES0_N4llvm12function_refIFvS0_EEE(i64 %0, i8 %1, i64 %2, i8 %3, ptr %4, i64 %5) #0 {
  %7 = alloca %"class.clang::QualifiersAndAtomic", align 8
  %8 = alloca %"class.clang::QualifiersAndAtomic", align 8
  %9 = alloca %"class.llvm::function_ref.1811", align 8
  %10 = alloca %"class.clang::QualifiersAndAtomic", align 8
  %11 = alloca %"class.clang::QualifiersAndAtomic", align 8
  %12 = alloca { i64, i8 }, align 8
  %13 = alloca %"class.llvm::function_ref.1811", align 8
  %14 = alloca %"class.clang::QualifiersAndAtomic", align 8
  %15 = alloca %"class.clang::QualifiersAndAtomic", align 8
  %16 = alloca %"class.llvm::function_ref.1811", align 8
  %17 = alloca %"class.clang::QualifiersAndAtomic", align 8
  %18 = alloca %"class.clang::QualifiersAndAtomic", align 8
  %19 = alloca { i64, i8 }, align 8
  %20 = alloca %"class.llvm::function_ref.1811", align 8
  %21 = alloca %"class.clang::QualifiersAndAtomic", align 8
  %22 = alloca %"class.clang::QualifiersAndAtomic", align 8
  %23 = alloca %"class.llvm::function_ref.1811", align 8
  %24 = alloca %"class.clang::QualifiersAndAtomic", align 8
  %25 = getelementptr inbounds nuw { i64, i8 }, ptr %7, i32 0, i32 0
  store i64 %0, ptr %25, align 8
  %26 = getelementptr inbounds nuw { i64, i8 }, ptr %7, i32 0, i32 1
  store i8 %1, ptr %26, align 8
  %27 = getelementptr inbounds nuw { i64, i8 }, ptr %8, i32 0, i32 0
  store i64 %2, ptr %27, align 8
  %28 = getelementptr inbounds nuw { i64, i8 }, ptr %8, i32 0, i32 1
  store i8 %3, ptr %28, align 8
  %29 = getelementptr inbounds nuw { ptr, i64 }, ptr %9, i32 0, i32 0
  store ptr %4, ptr %29, align 8
  %30 = getelementptr inbounds nuw { ptr, i64 }, ptr %9, i32 0, i32 1
  store i64 %5, ptr %30, align 8
  %31 = call noundef zeroext i1 @_ZNK5clang19QualifiersAndAtomic9hasAtomicEv(ptr noundef nonnull align 8 dereferenceable(9) %7)
  br i1 %31, label %32, label %58

32:                                               ; preds = %6
  call void @_ZN5clang19QualifiersAndAtomic12removeAtomicEv(ptr noundef nonnull align 8 dereferenceable(9) %7)
  call void @llvm.memcpy.p0.p0.i64(ptr align 8 %10, ptr align 8 %7, i64 16, i1 false)
  %33 = call { i64, i8 } @_ZN5clang19QualifiersAndAtomic10withAtomicEv(ptr noundef nonnull align 8 dereferenceable(9) %8)
  store { i64, i8 } %33, ptr %12, align 8
  call void @llvm.memcpy.p0.p0.i64(ptr align 8 %11, ptr align 8 %12, i64 9, i1 false)
  call void @llvm.memcpy.p0.p0.i64(ptr align 8 %13, ptr align 8 %9, i64 16, i1 false)
  %34 = getelementptr inbounds nuw { i64, i8 }, ptr %10, i32 0, i32 0
  %35 = load i64, ptr %34, align 8
  %36 = getelementptr inbounds nuw { i64, i8 }, ptr %10, i32 0, i32 1
  %37 = load i8, ptr %36, align 8
  %38 = getelementptr inbounds nuw { i64, i8 }, ptr %11, i32 0, i32 0
  %39 = load i64, ptr %38, align 8
  %40 = getelementptr inbounds nuw { i64, i8 }, ptr %11, i32 0, i32 1
  %41 = load i8, ptr %40, align 8
  %42 = getelementptr inbounds nuw { ptr, i64 }, ptr %13, i32 0, i32 0
  %43 = load ptr, ptr %42, align 8
  %44 = getelementptr inbounds nuw { ptr, i64 }, ptr %13, i32 0, i32 1
  %45 = load i64, ptr %44, align 8
  call void @_ZL31forAllQualifierCombinationsImplN5clang19QualifiersAndAtomicES0_N4llvm12function_refIFvS0_EEE(i64 %35, i8 %37, i64 %39, i8 %41, ptr %43, i64 %45)
  call void @llvm.memcpy.p0.p0.i64(ptr align 8 %14, ptr align 8 %7, i64 16, i1 false)
  call void @llvm.memcpy.p0.p0.i64(ptr align 8 %15, ptr align 8 %8, i64 16, i1 false)
  call void @llvm.memcpy.p0.p0.i64(ptr align 8 %16, ptr align 8 %9, i64 16, i1 false)
  %46 = getelementptr inbounds nuw { i64, i8 }, ptr %14, i32 0, i32 0
  %47 = load i64, ptr %46, align 8
  %48 = getelementptr inbounds nuw { i64, i8 }, ptr %14, i32 0, i32 1
  %49 = load i8, ptr %48, align 8
  %50 = getelementptr inbounds nuw { i64, i8 }, ptr %15, i32 0, i32 0
  %51 = load i64, ptr %50, align 8
  %52 = getelementptr inbounds nuw { i64, i8 }, ptr %15, i32 0, i32 1
  %53 = load i8, ptr %52, align 8
  %54 = getelementptr inbounds nuw { ptr, i64 }, ptr %16, i32 0, i32 0
  %55 = load ptr, ptr %54, align 8
  %56 = getelementptr inbounds nuw { ptr, i64 }, ptr %16, i32 0, i32 1
  %57 = load i64, ptr %56, align 8
  call void @_ZL31forAllQualifierCombinationsImplN5clang19QualifiersAndAtomicES0_N4llvm12function_refIFvS0_EEE(i64 %47, i8 %49, i64 %51, i8 %53, ptr %55, i64 %57)
  br label %91

58:                                               ; preds = %6
  %59 = call noundef zeroext i1 @_ZNK5clang19QualifiersAndAtomic11hasVolatileEv(ptr noundef nonnull align 8 dereferenceable(9) %7)
  br i1 %59, label %60, label %86

60:                                               ; preds = %58
  call void @_ZN5clang19QualifiersAndAtomic14removeVolatileEv(ptr noundef nonnull align 8 dereferenceable(9) %7)
  call void @llvm.memcpy.p0.p0.i64(ptr align 8 %17, ptr align 8 %7, i64 16, i1 false)
  %61 = call { i64, i8 } @_ZN5clang19QualifiersAndAtomic12withVolatileEv(ptr noundef nonnull align 8 dereferenceable(9) %8)
  store { i64, i8 } %61, ptr %19, align 8
  call void @llvm.memcpy.p0.p0.i64(ptr align 8 %18, ptr align 8 %19, i64 9, i1 false)
  call void @llvm.memcpy.p0.p0.i64(ptr align 8 %20, ptr align 8 %9, i64 16, i1 false)
  %62 = getelementptr inbounds nuw { i64, i8 }, ptr %17, i32 0, i32 0
  %63 = load i64, ptr %62, align 8
  %64 = getelementptr inbounds nuw { i64, i8 }, ptr %17, i32 0, i32 1
  %65 = load i8, ptr %64, align 8
  %66 = getelementptr inbounds nuw { i64, i8 }, ptr %18, i32 0, i32 0
  %67 = load i64, ptr %66, align 8
  %68 = getelementptr inbounds nuw { i64, i8 }, ptr %18, i32 0, i32 1
  %69 = load i8, ptr %68, align 8
  %70 = getelementptr inbounds nuw { ptr, i64 }, ptr %20, i32 0, i32 0
  %71 = load ptr, ptr %70, align 8
  %72 = getelementptr inbounds nuw { ptr, i64 }, ptr %20, i32 0, i32 1
  %73 = load i64, ptr %72, align 8
  call void @_ZL31forAllQualifierCombinationsImplN5clang19QualifiersAndAtomicES0_N4llvm12function_refIFvS0_EEE(i64 %63, i8 %65, i64 %67, i8 %69, ptr %71, i64 %73)
  call void @llvm.memcpy.p0.p0.i64(ptr align 8 %21, ptr align 8 %7, i64 16, i1 false)
  call void @llvm.memcpy.p0.p0.i64(ptr align 8 %22, ptr align 8 %8, i64 16, i1 false)
  call void @llvm.memcpy.p0.p0.i64(ptr align 8 %23, ptr align 8 %9, i64 16, i1 false)
  %74 = getelementptr inbounds nuw { i64, i8 }, ptr %21, i32 0, i32 0
  %75 = load i64, ptr %74, align 8
  %76 = getelementptr inbounds nuw { i64, i8 }, ptr %21, i32 0, i32 1
  %77 = load i8, ptr %76, align 8
  %78 = getelementptr inbounds nuw { i64, i8 }, ptr %22, i32 0, i32 0
  %79 = load i64, ptr %78, align 8
  %80 = getelementptr inbounds nuw { i64, i8 }, ptr %22, i32 0, i32 1
  %81 = load i8, ptr %80, align 8
  %82 = getelementptr inbounds nuw { ptr, i64 }, ptr %23, i32 0, i32 0
  %83 = load ptr, ptr %82, align 8
  %84 = getelementptr inbounds nuw { ptr, i64 }, ptr %23, i32 0, i32 1
  %85 = load i64, ptr %84, align 8
  call void @_ZL31forAllQualifierCombinationsImplN5clang19QualifiersAndAtomicES0_N4llvm12function_refIFvS0_EEE(i64 %75, i8 %77, i64 %79, i8 %81, ptr %83, i64 %85)
  br label %91

86:                                               ; preds = %58
  call void @llvm.memcpy.p0.p0.i64(ptr align 8 %24, ptr align 8 %8, i64 16, i1 false)
  %87 = getelementptr inbounds nuw { i64, i8 }, ptr %24, i32 0, i32 0
  %88 = load i64, ptr %87, align 8
  %89 = getelementptr inbounds nuw { i64, i8 }, ptr %24, i32 0, i32 1
  %90 = load i8, ptr %89, align 8
  call void @_ZNK4llvm12function_refIFvN5clang19QualifiersAndAtomicEEEclES2_(ptr noundef nonnull align 8 dereferenceable(16) %9, i64 %88, i8 %90)
  br label %91

91:                                               ; preds = %86, %60, %32
  ret void
}