; Function Attrs: mustprogress nounwind uwtable
define internal fastcc void @_ZL31forAllQualifierCombinationsImplN5clang19QualifiersAndAtomicES0_N4llvm12function_refIFvS0_EEE(i64 %0, i8 %1, i64 %2, i8 %3, ptr %4, i64 %5) unnamed_addr #4 {
.split:
  %6 = or i64 %2, 4
  %7 = and i8 %3, 1
  %8 = and i64 %0, -5
  br label %tailrecurse.outer

tailrecurse.outer:                                ; preds = %12, %.split
  %.tr.ph = phi i64 [ %8, %12 ], [ %0, %.split ]
  %.tr62.ph = phi i8 [ %.tr62.lcssa, %12 ], [ %1, %.split ]
  %9 = trunc i8 %.tr62.ph to i1
  br i1 %9, label %.lr.ph, label %10

.lr.ph:                                           ; preds = %tailrecurse.outer
  tail call fastcc void @_ZL31forAllQualifierCombinationsImplN5clang19QualifiersAndAtomicES0_N4llvm12function_refIFvS0_EEE(i64 %.tr.ph, i8 0, i64 %2, i8 1, ptr %4, i64 %5)
  br label %10

10:                                               ; preds = %.lr.ph, %tailrecurse.outer
  %.tr62.lcssa = phi i8 [ 0, %.lr.ph ], [ %.tr62.ph, %tailrecurse.outer ]
  %11 = and i64 %.tr.ph, 4
  %.not = icmp eq i64 %11, 0
  br i1 %.not, label %13, label %12

12:                                               ; preds = %10
  tail call fastcc void @_ZL31forAllQualifierCombinationsImplN5clang19QualifiersAndAtomicES0_N4llvm12function_refIFvS0_EEE(i64 %8, i8 %.tr62.lcssa, i64 %6, i8 %7, ptr %4, i64 %5)
  br label %tailrecurse.outer

13:                                               ; preds = %10
  tail call void %4(i64 noundef %5, i64 %2, i8 %3) #26
  ret void
}